; Function Attrs: mustprogress nofree norecurse nosync nounwind willreturn memory(argmem: read) uwtable
define noundef i32 @_ZNK6icu_7510GenderInfo13getListGenderEPK7UGenderiR10UErrorCode(ptr nocapture noundef nonnull readonly align 8 dereferenceable(12) %this, ptr nocapture noundef readonly %genders, i32 noundef %length, ptr nocapture noundef nonnull readonly align 4 dereferenceable(4) %status) local_unnamed_addr #9 align 2 {
entry:
  %0 = load i32, ptr %status, align 4
  %cmp.i = icmp slt i32 %0, 1
  br i1 %cmp.i, label %if.end, label %return

if.end:                                           ; preds = %entry
  switch i32 %length, label %if.end6 [
    i32 0, label %return
    i32 1, label %if.then5
  ]

if.then5:                                         ; preds = %if.end
  %1 = load i32, ptr %genders, align 4
  br label %return

if.end6:                                          ; preds = %if.end
  %_style = getelementptr inbounds i8, ptr %this, i64 8
  %2 = load i32, ptr %_style, align 8
  switch i32 %2, label %return [
    i32 2, label %for.cond22.preheader
    i32 1, label %for.cond.preheader
  ]

for.cond.preheader:                               ; preds = %if.end6
  %cmp813 = icmp sgt i32 %length, 0
  br i1 %cmp813, label %for.body.preheader, label %return

for.body.preheader:                               ; preds = %for.cond.preheader
  %wide.trip.count = zext nneg i32 %length to i64
  br label %for.body

for.cond22.preheader:                             ; preds = %if.end6
  %cmp2317 = icmp sgt i32 %length, 0
  br i1 %cmp2317, label %for.body24.preheader, label %return

for.body24.preheader:                             ; preds = %for.cond22.preheader
  %wide.trip.count25 = zext nneg i32 %length to i64
  br label %for.body24

for.body:                                         ; preds = %for.body.preheader, %for.inc
  %indvars.iv = phi i64 [ 0, %for.body.preheader ], [ %indvars.iv.next, %for.inc ]
  %has_male.015 = phi i8 [ 0, %for.body.preheader ], [ %has_male.1, %for.inc ]
  %has_female.014 = phi i8 [ 0, %for.body.preheader ], [ %has_female.1, %for.inc ]
  %arrayidx9 = getelementptr inbounds i32, ptr %genders, i64 %indvars.iv
  %3 = load i32, ptr %arrayidx9, align 4
  switch i32 %3, label %for.inc [
    i32 2, label %return
    i32 1, label %sw.bb11
    i32 0, label %sw.bb15
  ]

sw.bb11:                                          ; preds = %for.body
  %tobool12.not = icmp eq i8 %has_male.015, 0
  br i1 %tobool12.not, label %for.inc, label %return

sw.bb15:                                          ; preds = %for.body
  %tobool16.not = icmp eq i8 %has_female.014, 0
  br i1 %tobool16.not, label %for.inc, label %return

for.inc:                                          ; preds = %sw.bb15, %sw.bb11, %for.body
  %has_female.1 = phi i8 [ %has_female.014, %for.body ], [ 1, %sw.bb11 ], [ 0, %sw.bb15 ]
  %has_male.1 = phi i8 [ %has_male.015, %for.body ], [ 0, %sw.bb11 ], [ 1, %sw.bb15 ]
  %indvars.iv.next = add nuw nsw i64 %indvars.iv, 1
  %exitcond.not = icmp eq i64 %indvars.iv.next, %wide.trip.count
  br i1 %exitcond.not, label %for.end.loopexit, label %for.body, !llvm.loop !7

for.end.loopexit:                                 ; preds = %for.inc
  %4 = icmp eq i8 %has_male.1, 0
  %5 = zext i1 %4 to i32
  br label %return

for.cond22:                                       ; preds = %for.body24
  %indvars.iv.next23 = add nuw nsw i64 %indvars.iv22, 1
  %exitcond26.not = icmp eq i64 %indvars.iv.next23, %wide.trip.count25
  br i1 %exitcond26.not, label %return, label %for.body24, !llvm.loop !8

for.body24:                                       ; preds = %for.body24.preheader, %for.cond22
  %indvars.iv22 = phi i64 [ 0, %for.body24.preheader ], [ %indvars.iv.next23, %for.cond22 ]
  %arrayidx26 = getelementptr inbounds i32, ptr %genders, i64 %indvars.iv22
  %6 = load i32, ptr %arrayidx26, align 4
  %cmp27.not = icmp eq i32 %6, 1
  br i1 %cmp27.not, label %for.cond22, label %return

return:                                           ; preds = %sw.bb15, %sw.bb11, %for.body, %for.body24, %for.cond22, %for.cond.preheader, %for.end.loopexit, %for.cond22.preheader, %if.end6, %if.end, %entry, %if.then5
  %retval.0 = phi i32 [ %1, %if.then5 ], [ 2, %entry ], [ 2, %if.end ], [ 2, %if.end6 ], [ 1, %for.cond22.preheader ], [ 1, %for.cond.preheader ], [ %5, %for.end.loopexit ], [ 0, %for.body24 ], [ 1, %for.cond22 ], [ 2, %sw.bb15 ], [ 2, %sw.bb11 ], [ %3, %for.body ]
  ret i32 %retval.0
}